; Function Attrs: mustprogress uwtable
define noundef double @_ZNK8QuantLib23HullWhiteForwardProcess5alphaEd(ptr noundef nonnull align 8 dereferenceable(200) %this, double noundef %t) local_unnamed_addr #6 align 2 personality ptr @__gxx_personality_v0 {
entry:
  %ref.tmp = alloca %"class.QuantLib::InterestRate", align 8
  %a_ = getelementptr inbounds nuw i8, ptr %this, i64 184
  %0 = load double, ptr %a_, align 8, !tbaa !74
  %cmp = fcmp ogt double %0, 0x3CB0000000000000
  %sigma_ = getelementptr inbounds nuw i8, ptr %this, i64 192
  %1 = load double, ptr %sigma_, align 8, !tbaa !77
  br i1 %cmp, label %cond.true, label %cond.false

cond.true:                                        ; preds = %entry
  %div = fdiv double %1, %0
  %fneg = fneg double %0
  %mul = fmul double %t, %fneg
  %call4 = tail call double @exp(double noundef %mul) #25, !tbaa !73
  %sub = fsub double 1.000000e+00, %call4
  %mul5 = fmul double %div, %sub
  br label %cond.end

cond.false:                                       ; preds = %entry
  %mul7 = fmul double %t, %1
  br label %cond.end

cond.end:                                         ; preds = %cond.false, %cond.true
  %cond = phi double [ %mul5, %cond.true ], [ %mul7, %cond.false ]
  call void @llvm.lifetime.start.p0(i64 40, ptr nonnull %ref.tmp) #25
  %h_ = getelementptr inbounds nuw i8, ptr %this, i64 168
  %call10 = tail call noundef nonnull align 8 dereferenceable(16) ptr @_ZNK8QuantLib6HandleINS_18YieldTermStructureEEptEv(ptr noundef nonnull align 8 dereferenceable(16) %h_)
  %2 = load ptr, ptr %call10, align 8, !tbaa !30
  %cmp.not.i = icmp eq ptr %2, null
  br i1 %cmp.not.i, label %cond.false.i, label %_ZNK5boost10shared_ptrIN8QuantLib18YieldTermStructureEEptEv.exit, !prof !33

cond.false.i:                                     ; preds = %cond.end
  tail call void @_ZN5boost16assertion_failedEPKcS1_S1_l(ptr noundef nonnull @.str.6, ptr noundef nonnull @__PRETTY_FUNCTION__._ZNK5boost10shared_ptrIN8QuantLib18YieldTermStructureEEptEv, ptr noundef nonnull @.str.7, i64 noundef 784)
  %.pre.i = load ptr, ptr %call10, align 8, !tbaa !30
  br label %_ZNK5boost10shared_ptrIN8QuantLib18YieldTermStructureEEptEv.exit

_ZNK5boost10shared_ptrIN8QuantLib18YieldTermStructureEEptEv.exit: ; preds = %cond.end, %cond.false.i
  %3 = phi ptr [ %2, %cond.end ], [ %.pre.i, %cond.false.i ]
  call void @_ZNK8QuantLib18YieldTermStructure11forwardRateEddNS_11CompoundingENS_9FrequencyEb(ptr dead_on_unwind nonnull writable sret(%"class.QuantLib::InterestRate") align 8 %ref.tmp, ptr noundef nonnull align 8 dereferenceable(152) %3, double noundef %t, double noundef %t, i32 noundef 2, i32 noundef -1, i1 noundef zeroext false)
  %4 = load double, ptr %ref.tmp, align 8, !tbaa !34
  %pn.i.i.i = getelementptr inbounds nuw i8, ptr %ref.tmp, i64 16
  %5 = load ptr, ptr %pn.i.i.i, align 8, !tbaa !42
  %cmp.not.i.i.i.i = icmp eq ptr %5, null
  br i1 %cmp.not.i.i.i.i, label %_ZN8QuantLib12InterestRateD2Ev.exit, label %if.then.i.i.i.i

if.then.i.i.i.i:                                  ; preds = %_ZNK5boost10shared_ptrIN8QuantLib18YieldTermStructureEEptEv.exit
  %use_count_.i.i.i.i.i = getelementptr inbounds nuw i8, ptr %5, i64 8
  %6 = atomicrmw sub ptr %use_count_.i.i.i.i.i, i32 1 acq_rel, align 4
  %cmp.i.i.i.i.i = icmp eq i32 %6, 1
  br i1 %cmp.i.i.i.i.i, label %if.then.i.i.i.i.i, label %_ZN8QuantLib12InterestRateD2Ev.exit

if.then.i.i.i.i.i:                                ; preds = %if.then.i.i.i.i
  %vtable.i.i.i.i.i = load ptr, ptr %5, align 8, !tbaa !28
  %vfn.i.i.i.i.i = getelementptr inbounds i8, ptr %vtable.i.i.i.i.i, i64 16
  %7 = load ptr, ptr %vfn.i.i.i.i.i, align 8
  invoke void %7(ptr noundef nonnull align 8 dereferenceable(16) %5)
          to label %.noexc.i.i.i.i unwind label %terminate.lpad.i.i.i.i

.noexc.i.i.i.i:                                   ; preds = %if.then.i.i.i.i.i
  %weak_count_.i.i.i.i.i.i = getelementptr inbounds nuw i8, ptr %5, i64 12
  %8 = atomicrmw sub ptr %weak_count_.i.i.i.i.i.i, i32 1 acq_rel, align 4
  %cmp.i.i.i.i.i.i = icmp eq i32 %8, 1
  br i1 %cmp.i.i.i.i.i.i, label %if.then.i.i.i.i.i.i, label %_ZN8QuantLib12InterestRateD2Ev.exit

if.then.i.i.i.i.i.i:                              ; preds = %.noexc.i.i.i.i
  %vtable.i.i.i.i.i.i = load ptr, ptr %5, align 8, !tbaa !28
  %vfn.i.i.i.i.i.i = getelementptr inbounds i8, ptr %vtable.i.i.i.i.i.i, i64 24
  %9 = load ptr, ptr %vfn.i.i.i.i.i.i, align 8
  invoke void %9(ptr noundef nonnull align 8 dereferenceable(16) %5)
          to label %_ZN8QuantLib12InterestRateD2Ev.exit unwind label %terminate.lpad.i.i.i.i

terminate.lpad.i.i.i.i:                           ; preds = %if.then.i.i.i.i.i.i, %if.then.i.i.i.i.i
  %10 = landingpad { ptr, i32 }
          catch ptr null
  %11 = extractvalue { ptr, i32 } %10, 0
  call void @__clang_call_terminate(ptr %11) #26
  unreachable

_ZN8QuantLib12InterestRateD2Ev.exit:              ; preds = %_ZNK5boost10shared_ptrIN8QuantLib18YieldTermStructureEEptEv.exit, %if.then.i.i.i.i, %.noexc.i.i.i.i, %if.then.i.i.i.i.i.i
  %mul8 = fmul double %cond, 5.000000e-01
  %mul9 = fmul double %cond, %mul8
  %add = fadd double %mul9, %4
  call void @llvm.lifetime.end.p0(i64 40, ptr nonnull %ref.tmp) #25
  ret double %add
}